target datalayout = "e-m:e-p270:32:32-p271:32:32-p272:64:64-i64:64-i128:128-f80:128-n8:16:32:64-S128"
target triple = "x86_64-pc-linux-gnu"

%"class.icu_77::StringPiece" = type <{ ptr, i32, [4 x i8] }>
%"class.icu_77::CurrencyUnit" = type { %"class.icu_77::MeasureUnit.base", [4 x i16], [4 x i8] }
%"class.icu_77::MeasureUnit.base" = type <{ %"class.icu_77::UObject", ptr, i16, i8 }>
%"class.icu_77::UObject" = type { ptr }
%"class.icu_77::ConstChar16Ptr" = type { ptr }

@_ZN6icu_77L16kDefaultCurrencyE = internal constant [4 x i16] [i16 88, i16 88, i16 88, i16 0], align 2

; Function Attrs: inlinehint mustprogress nounwind uwtable
define linkonce_odr noundef ptr @_ZNK6icu_7714ConstChar16Ptr3getEv(ptr noundef nonnull align 8 dereferenceable(8) %0) #2 comdat align 2 {
  %2 = alloca ptr, align 8
  store ptr %0, ptr %2, align 8, !tbaa !25
  %3 = load ptr, ptr %2, align 8
  %4 = getelementptr inbounds nuw %"class.icu_77::ConstChar16Ptr", ptr %3, i32 0, i32 0
  %5 = load ptr, ptr %4, align 8, !tbaa !46
  ret ptr %5
}

; Function Attrs: inlinehint mustprogress uwtable
define linkonce_odr noundef ptr @_ZNK6icu_7714ConstChar16PtrcvPKDsEv(ptr noundef nonnull align 8 dereferenceable(8) %0) #3 comdat align 2 {
  %2 = alloca ptr, align 8
  store ptr %0, ptr %2, align 8, !tbaa !25
  %3 = load ptr, ptr %2, align 8
  %4 = call noundef ptr @_ZNK6icu_7714ConstChar16Ptr3getEv(ptr noundef nonnull align 8 dereferenceable(8) %3)
  ret ptr %4
}

; Function Attrs: inlinehint mustprogress nounwind uwtable
define internal noundef signext i8 @_ZL9U_FAILURE10UErrorCode(i32 noundef %0) #2 {
  %2 = alloca i32, align 4
  store i32 %0, ptr %2, align 4, !tbaa !15
  %3 = load i32, ptr %2, align 4, !tbaa !15
  %4 = icmp sgt i32 %3, 0
  %5 = zext i1 %4 to i8
  ret i8 %5
}

; Function Attrs: mustprogress uwtable
define void @_ZN6icu_7712CurrencyUnitC2ENS_14ConstChar16PtrER10UErrorCode(ptr noundef nonnull align 8 dereferenceable(28) %0, ptr noundef %1, ptr noundef nonnull align 4 dereferenceable(4) %2) unnamed_addr #1 align 2 personality ptr @__gxx_personality_v0 {
  %4 = alloca ptr, align 8
  %5 = alloca ptr, align 8
  %6 = alloca ptr, align 8
  %7 = alloca i8, align 1
  %8 = alloca ptr, align 8
  %9 = alloca i32, align 4
  %10 = alloca i32, align 4
  %11 = alloca [4 x i8], align 1
  %12 = alloca %"class.icu_77::StringPiece", align 8
  store ptr %0, ptr %4, align 8, !tbaa !23
  store ptr %1, ptr %5, align 8, !tbaa !25
  store ptr %2, ptr %6, align 8, !tbaa !22
  %13 = load ptr, ptr %4, align 8
  call void @_ZN6icu_7711MeasureUnitC2Ev(ptr noundef nonnull align 8 dereferenceable(19) %13)
  store ptr getelementptr inbounds inrange(-16, 40) ({ [7 x ptr] }, ptr @_ZTVN6icu_7712CurrencyUnitE, i32 0, i32 0, i32 2), ptr %13, align 8, !tbaa !27
  call void @llvm.lifetime.start.p0(i64 1, ptr %7) #11
  store i8 0, ptr %7, align 1, !tbaa !29
  %14 = load ptr, ptr %6, align 8, !tbaa !22
  %15 = load i32, ptr %14, align 4, !tbaa !15
  %16 = invoke noundef signext i8 @_ZL9U_FAILURE10UErrorCode(i32 noundef %15)
          to label %17 unwind label %31

17:                                               ; preds = %3
  %18 = icmp ne i8 %16, 0
  br i1 %18, label %30, label %19

19:                                               ; preds = %17
  %20 = invoke noundef ptr @_ZNK6icu_7714ConstChar16PtrcvPKDsEv(ptr noundef nonnull align 8 dereferenceable(8) %1)
          to label %21 unwind label %31

21:                                               ; preds = %19
  %22 = icmp eq ptr %20, null
  br i1 %22, label %30, label %23

23:                                               ; preds = %21
  %24 = invoke noundef ptr @_ZNK6icu_7714ConstChar16PtrcvPKDsEv(ptr noundef nonnull align 8 dereferenceable(8) %1)
          to label %25 unwind label %31

25:                                               ; preds = %23
  %26 = getelementptr inbounds i16, ptr %24, i64 0
  %27 = load i16, ptr %26, align 2, !tbaa !31
  %28 = zext i16 %27 to i32
  %29 = icmp eq i32 %28, 0
  br i1 %29, label %30, label %35

30:                                               ; preds = %25, %21, %17
  store i8 1, ptr %7, align 1, !tbaa !29
  br label %89

31:                                               ; preds = %53, %51, %42, %35, %23, %19, %3
  %32 = landingpad { ptr, i32 }
          cleanup
  %33 = extractvalue { ptr, i32 } %32, 0
  store ptr %33, ptr %8, align 8
  %34 = extractvalue { ptr, i32 } %32, 1
  store i32 %34, ptr %9, align 4
  br label %114

35:                                               ; preds = %25
  %36 = invoke noundef ptr @_ZNK6icu_7714ConstChar16PtrcvPKDsEv(ptr noundef nonnull align 8 dereferenceable(8) %1)
          to label %37 unwind label %31

37:                                               ; preds = %35
  %38 = getelementptr inbounds i16, ptr %36, i64 1
  %39 = load i16, ptr %38, align 2, !tbaa !31
  %40 = zext i16 %39 to i32
  %41 = icmp eq i32 %40, 0
  br i1 %41, label %49, label %42

42:                                               ; preds = %37
  %43 = invoke noundef ptr @_ZNK6icu_7714ConstChar16PtrcvPKDsEv(ptr noundef nonnull align 8 dereferenceable(8) %1)
          to label %44 unwind label %31

44:                                               ; preds = %42
  %45 = getelementptr inbounds i16, ptr %43, i64 2
  %46 = load i16, ptr %45, align 2, !tbaa !31
  %47 = zext i16 %46 to i32
  %48 = icmp eq i32 %47, 0
  br i1 %48, label %49, label %51

49:                                               ; preds = %44, %37
  store i8 1, ptr %7, align 1, !tbaa !29
  %50 = load ptr, ptr %6, align 8, !tbaa !22
  store i32 1, ptr %50, align 4, !tbaa !15
  br label %88

51:                                               ; preds = %44
  %52 = invoke noundef ptr @_ZNK6icu_7714ConstChar16PtrcvPKDsEv(ptr noundef nonnull align 8 dereferenceable(8) %1)
          to label %53 unwind label %31

53:                                               ; preds = %51
  %54 = invoke signext i8 @uprv_isInvariantUString_77(ptr noundef %52, i32 noundef 3)
          to label %55 unwind label %31

55:                                               ; preds = %53
  %56 = icmp ne i8 %54, 0
  br i1 %56, label %59, label %57

57:                                               ; preds = %55
  store i8 1, ptr %7, align 1, !tbaa !29
  %58 = load ptr, ptr %6, align 8, !tbaa !22
  store i32 26, ptr %58, align 4, !tbaa !15
  br label %87

59:                                               ; preds = %55
  call void @llvm.lifetime.start.p0(i64 4, ptr %10) #11
  store i32 0, ptr %10, align 4, !tbaa !14
  br label %60

60:                                               ; preds = %77, %59
  %61 = load i32, ptr %10, align 4, !tbaa !14
  %62 = icmp slt i32 %61, 3
  br i1 %62, label %64, label %63

63:                                               ; preds = %60
  call void @llvm.lifetime.end.p0(i64 4, ptr %10) #11
  br label %84

64:                                               ; preds = %60
  %65 = invoke noundef ptr @_ZNK6icu_7714ConstChar16PtrcvPKDsEv(ptr noundef nonnull align 8 dereferenceable(8) %1)
          to label %66 unwind label %80

66:                                               ; preds = %64
  %67 = load i32, ptr %10, align 4, !tbaa !14
  %68 = sext i32 %67 to i64
  %69 = getelementptr inbounds i16, ptr %65, i64 %68
  %70 = load i16, ptr %69, align 2, !tbaa !31
  %71 = invoke zeroext i16 @u_asciiToUpper_77(i16 noundef zeroext %70)
          to label %72 unwind label %80

72:                                               ; preds = %66
  %73 = getelementptr inbounds nuw %"class.icu_77::CurrencyUnit", ptr %13, i32 0, i32 1
  %74 = load i32, ptr %10, align 4, !tbaa !14
  %75 = sext i32 %74 to i64
  %76 = getelementptr inbounds [4 x i16], ptr %73, i64 0, i64 %75
  store i16 %71, ptr %76, align 2, !tbaa !31
  br label %77

77:                                               ; preds = %72
  %78 = load i32, ptr %10, align 4, !tbaa !14
  %79 = add nsw i32 %78, 1
  store i32 %79, ptr %10, align 4, !tbaa !14
  br label %60, !llvm.loop !33

80:                                               ; preds = %66, %64
  %81 = landingpad { ptr, i32 }
          cleanup
  %82 = extractvalue { ptr, i32 } %81, 0
  store ptr %82, ptr %8, align 8
  %83 = extractvalue { ptr, i32 } %81, 1
  store i32 %83, ptr %9, align 4
  call void @llvm.lifetime.end.p0(i64 4, ptr %10) #11
  br label %114

84:                                               ; preds = %63
  %85 = getelementptr inbounds nuw %"class.icu_77::CurrencyUnit", ptr %13, i32 0, i32 1
  %86 = getelementptr inbounds [4 x i16], ptr %85, i64 0, i64 3
  store i16 0, ptr %86, align 2, !tbaa !31
  br label %87

87:                                               ; preds = %84, %57
  br label %88

88:                                               ; preds = %87, %49
  br label %89

89:                                               ; preds = %88, %30
  %90 = load i8, ptr %7, align 1, !tbaa !29, !range !35, !noundef !36
  %91 = trunc i8 %90 to i1
  br i1 %91, label %92, label %98

92:                                               ; preds = %89
  br label %93

93:                                               ; preds = %92
  %94 = getelementptr inbounds nuw %"class.icu_77::CurrencyUnit", ptr %13, i32 0, i32 1
  %95 = getelementptr inbounds [4 x i16], ptr %94, i64 0, i64 0
  call void @llvm.memcpy.p0.p0.i64(ptr align 4 %95, ptr align 2 @_ZN6icu_77L16kDefaultCurrencyE, i64 8, i1 false)
  br label %96

96:                                               ; preds = %93
  br label %97

97:                                               ; preds = %96
  br label %98

98:                                               ; preds = %97, %89
  call void @llvm.lifetime.start.p0(i64 4, ptr %11) #11
  %99 = getelementptr inbounds nuw %"class.icu_77::CurrencyUnit", ptr %13, i32 0, i32 1
  %100 = getelementptr inbounds [4 x i16], ptr %99, i64 0, i64 0
  %101 = getelementptr inbounds [4 x i8], ptr %11, i64 0, i64 0
  invoke void @u_UCharsToChars_77(ptr noundef %100, ptr noundef %101, i32 noundef 4)
          to label %102 unwind label %110

102:                                              ; preds = %98
  %103 = getelementptr inbounds [4 x i8], ptr %11, i64 0, i64 0
  invoke void @_ZN6icu_7711StringPieceC1EPKc(ptr noundef nonnull align 8 dereferenceable(12) %12, ptr noundef %103)
          to label %104 unwind label %110

104:                                              ; preds = %102
  %105 = getelementptr inbounds nuw { ptr, i32 }, ptr %12, i32 0, i32 0
  %106 = load ptr, ptr %105, align 8
  %107 = getelementptr inbounds nuw { ptr, i32 }, ptr %12, i32 0, i32 1
  %108 = load i32, ptr %107, align 8
  invoke void @_ZN6icu_7711MeasureUnit12initCurrencyENS_11StringPieceE(ptr noundef nonnull align 8 dereferenceable(19) %13, ptr %106, i32 %108)
          to label %109 unwind label %110

109:                                              ; preds = %104
  call void @llvm.lifetime.end.p0(i64 4, ptr %11) #11
  call void @llvm.lifetime.end.p0(i64 1, ptr %7) #11
  ret void

110:                                              ; preds = %104, %102, %98
  %111 = landingpad { ptr, i32 }
          cleanup
  %112 = extractvalue { ptr, i32 } %111, 0
  store ptr %112, ptr %8, align 8
  %113 = extractvalue { ptr, i32 } %111, 1
  store i32 %113, ptr %9, align 4
  call void @llvm.lifetime.end.p0(i64 4, ptr %11) #11
  br label %114

114:                                              ; preds = %110, %80, %31
  call void @llvm.lifetime.end.p0(i64 1, ptr %7) #11
  call void @_ZN6icu_7711MeasureUnitD2Ev(ptr noundef nonnull align 8 dereferenceable(19) %13) #11
  br label %115

115:                                              ; preds = %114
  %116 = load ptr, ptr %8, align 8
  %117 = load i32, ptr %9, align 4
  %118 = insertvalue { ptr, i32 } poison, ptr %116, 0
  %119 = insertvalue { ptr, i32 } %118, i32 %117, 1
  resume { ptr, i32 } %119
}