; Function Attrs: mustprogress uwtable
define void @_ZN6icu_7712CurrencyUnitC2ENS_14ConstChar16PtrER10UErrorCode(ptr noundef nonnull align 8 dereferenceable(28) %0, ptr noundef readonly captures(none) %1, ptr noundef nonnull align 4 captures(none) dereferenceable(4) %2) unnamed_addr #1 align 2 personality ptr @__gxx_personality_v0 {
  %4 = alloca [4 x i8], align 1
  %5 = alloca %"class.icu_77::StringPiece", align 8
  tail call void @_ZN6icu_7711MeasureUnitC2Ev(ptr noundef nonnull align 8 dereferenceable(19) %0)
  store ptr getelementptr inbounds nuw inrange(-16, 40) (i8, ptr @_ZTVN6icu_7712CurrencyUnitE, i64 16), ptr %0, align 8, !tbaa !15
  %6 = load i32, ptr %2, align 4, !tbaa !13
  %7 = icmp slt i32 %6, 1
  br i1 %7, label %8, label %.critedge

8:                                                ; preds = %3
  %9 = load ptr, ptr %1, align 8, !tbaa !17
  %10 = icmp eq ptr %9, null
  br i1 %10, label %.critedge, label %11

11:                                               ; preds = %8
  %12 = load i16, ptr %9, align 2, !tbaa !20
  %13 = icmp eq i16 %12, 0
  br i1 %13, label %.critedge, label %16

14:                                               ; preds = %24
  %15 = landingpad { ptr, i32 }
          cleanup
  br label %50

16:                                               ; preds = %11
  %17 = getelementptr inbounds nuw i8, ptr %9, i64 2
  %18 = load i16, ptr %17, align 2, !tbaa !20
  %19 = icmp eq i16 %18, 0
  br i1 %19, label %.critedge.sink.split, label %20

20:                                               ; preds = %16
  %21 = getelementptr inbounds nuw i8, ptr %9, i64 4
  %22 = load i16, ptr %21, align 2, !tbaa !20
  %23 = icmp eq i16 %22, 0
  br i1 %23, label %.critedge.sink.split, label %24

24:                                               ; preds = %20
  %25 = invoke signext i8 @uprv_isInvariantUString_77(ptr noundef nonnull %9, i32 noundef 3)
          to label %26 unwind label %14

26:                                               ; preds = %24
  %.not13 = icmp eq i8 %25, 0
  br i1 %.not13, label %.critedge.sink.split, label %.preheader

.preheader:                                       ; preds = %26
  %27 = getelementptr inbounds nuw i8, ptr %0, i64 20
  br label %30

28:                                               ; preds = %35
  %29 = getelementptr inbounds nuw i8, ptr %0, i64 26
  store i16 0, ptr %29, align 2, !tbaa !20
  br label %40

30:                                               ; preds = %.preheader, %35
  %indvars.iv = phi i64 [ 0, %.preheader ], [ %indvars.iv.next, %35 ]
  %31 = load ptr, ptr %1, align 8, !tbaa !17
  %32 = getelementptr inbounds nuw i16, ptr %31, i64 %indvars.iv
  %33 = load i16, ptr %32, align 2, !tbaa !20
  %34 = invoke zeroext i16 @u_asciiToUpper_77(i16 noundef zeroext %33)
          to label %35 unwind label %37

35:                                               ; preds = %30
  %36 = getelementptr inbounds nuw [4 x i16], ptr %27, i64 0, i64 %indvars.iv
  store i16 %34, ptr %36, align 2, !tbaa !20
  %indvars.iv.next = add nuw nsw i64 %indvars.iv, 1
  %exitcond.not = icmp eq i64 %indvars.iv.next, 3
  br i1 %exitcond.not, label %28, label %30, !llvm.loop !22

37:                                               ; preds = %30
  %38 = landingpad { ptr, i32 }
          cleanup
  br label %50

.critedge.sink.split:                             ; preds = %26, %16, %20
  %.sink = phi i32 [ 1, %20 ], [ 1, %16 ], [ 26, %26 ]
  store i32 %.sink, ptr %2, align 4, !tbaa !13
  br label %.critedge

.critedge:                                        ; preds = %.critedge.sink.split, %3, %8, %11
  %39 = getelementptr inbounds nuw i8, ptr %0, i64 20
  store i64 377962889304, ptr %39, align 4
  br label %40

40:                                               ; preds = %28, %.critedge
  call void @llvm.lifetime.start.p0(i64 4, ptr nonnull %4) #14
  %41 = getelementptr inbounds nuw i8, ptr %0, i64 20
  invoke void @u_UCharsToChars_77(ptr noundef nonnull %41, ptr noundef nonnull %4, i32 noundef 4)
          to label %42 unwind label %48

42:                                               ; preds = %40
  invoke void @_ZN6icu_7711StringPieceC1EPKc(ptr noundef nonnull align 8 dereferenceable(12) %5, ptr noundef nonnull %4)
          to label %43 unwind label %48

43:                                               ; preds = %42
  %44 = load ptr, ptr %5, align 8
  %45 = getelementptr inbounds nuw i8, ptr %5, i64 8
  %46 = load i32, ptr %45, align 8
  invoke void @_ZN6icu_7711MeasureUnit12initCurrencyENS_11StringPieceE(ptr noundef nonnull align 8 dereferenceable(19) %0, ptr %44, i32 %46)
          to label %47 unwind label %48

47:                                               ; preds = %43
  call void @llvm.lifetime.end.p0(i64 4, ptr nonnull %4) #14
  ret void

48:                                               ; preds = %43, %42, %40
  %49 = landingpad { ptr, i32 }
          cleanup
  call void @llvm.lifetime.end.p0(i64 4, ptr nonnull %4) #14
  br label %50

50:                                               ; preds = %48, %37, %14
  %.pn = phi { ptr, i32 } [ %49, %48 ], [ %38, %37 ], [ %15, %14 ]
  call void @_ZN6icu_7711MeasureUnitD2Ev(ptr noundef nonnull align 8 dereferenceable(19) %0) #14
  resume { ptr, i32 } %.pn
}